target datalayout = "e-m:e-p270:32:32-p271:32:32-p272:64:64-i64:64-i128:128-f80:128-n8:16:32:64-S128"
target triple = "x86_64-pc-linux-gnu"

%struct.evthread_lock_callbacks = type { i32, i32, ptr, ptr, ptr, ptr }
%struct.timeval = type { i64, i64 }
%struct.sockaddr_storage = type { i16, [118 x i8], i64 }
%struct.evdns_base = type { ptr, ptr, ptr, i32, ptr, i32, i32, i32, i32, %struct.timeval, i32, i32, i32, i32, i16, %struct.timeval, i16, %struct.timeval, %struct.sockaddr_storage, i32, %struct.timeval, i32, i32, i32, i32, i32, i32, ptr, %struct.hosts_list, %struct.evdns_tree, ptr, i32, i32, i32, i32 }
%struct.hosts_list = type { ptr, ptr }
%struct.evdns_tree = type { ptr }

@evthread_lock_fns_ = external global %struct.evthread_lock_callbacks, align 8

; Function Attrs: nounwind uwtable
define i32 @evdns_base_nameserver_sockaddr_add(ptr noundef %0, ptr noundef %1, i32 noundef %2, i32 noundef %3) #0 {
  %5 = alloca ptr, align 8
  %6 = alloca ptr, align 8
  %7 = alloca i32, align 4
  %8 = alloca i32, align 4
  %9 = alloca i32, align 4
  store ptr %0, ptr %5, align 8
  store ptr %1, ptr %6, align 8
  store i32 %2, ptr %7, align 4
  store i32 %3, ptr %8, align 4
  call void @llvm.lifetime.start.p0(i64 4, ptr %9) #10
  br label %10

10:                                               ; preds = %4
  br label %11

11:                                               ; preds = %10
  br label %12

12:                                               ; preds = %11
  br label %13

13:                                               ; preds = %12
  %14 = load ptr, ptr %5, align 8
  %15 = getelementptr inbounds nuw %struct.evdns_base, ptr %14, i32 0, i32 30
  %16 = load ptr, ptr %15, align 8
  %17 = icmp ne ptr %16, null
  br i1 %17, label %18, label %24

18:                                               ; preds = %13
  %19 = load ptr, ptr getelementptr inbounds nuw (%struct.evthread_lock_callbacks, ptr @evthread_lock_fns_, i32 0, i32 4), align 8
  %20 = load ptr, ptr %5, align 8
  %21 = getelementptr inbounds nuw %struct.evdns_base, ptr %20, i32 0, i32 30
  %22 = load ptr, ptr %21, align 8
  %23 = call i32 %19(i32 noundef 0, ptr noundef %22)
  br label %24

24:                                               ; preds = %18, %13
  br label %25

25:                                               ; preds = %24
  br label %26

26:                                               ; preds = %25
  %27 = load ptr, ptr %5, align 8
  %28 = load ptr, ptr %6, align 8
  %29 = load i32, ptr %7, align 4
  %30 = call i32 @evdns_nameserver_add_impl_(ptr noundef %27, ptr noundef %28, i32 noundef %29)
  store i32 %30, ptr %9, align 4
  br label %31

31:                                               ; preds = %26
  %32 = load ptr, ptr %5, align 8
  %33 = getelementptr inbounds nuw %struct.evdns_base, ptr %32, i32 0, i32 30
  %34 = load ptr, ptr %33, align 8
  %35 = icmp ne ptr %34, null
  br i1 %35, label %36, label %42

36:                                               ; preds = %31
  %37 = load ptr, ptr getelementptr inbounds nuw (%struct.evthread_lock_callbacks, ptr @evthread_lock_fns_, i32 0, i32 5), align 8
  %38 = load ptr, ptr %5, align 8
  %39 = getelementptr inbounds nuw %struct.evdns_base, ptr %38, i32 0, i32 30
  %40 = load ptr, ptr %39, align 8
  %41 = call i32 %37(i32 noundef 0, ptr noundef %40)
  br label %42

42:                                               ; preds = %36, %31
  br label %43

43:                                               ; preds = %42
  br label %44

44:                                               ; preds = %43
  %45 = load i32, ptr %9, align 4
  call void @llvm.lifetime.end.p0(i64 4, ptr %9) #10
  ret i32 %45
}