; Function Attrs: nounwind uwtable
define range(i32 -8, 4) i32 @evdns_base_nameserver_sockaddr_add(ptr noundef %0, ptr noundef %1, i32 noundef %2, i32 noundef %3) local_unnamed_addr #2 {
  %5 = getelementptr inbounds nuw i8, ptr %0, i64 344
  %6 = load ptr, ptr %5, align 8
  %.not = icmp eq ptr %6, null
  br i1 %.not, label %10, label %7

7:                                                ; preds = %4
  %8 = load ptr, ptr getelementptr inbounds nuw (i8, ptr @evthread_lock_fns_, i64 24), align 8
  %9 = tail call i32 %8(i32 noundef 0, ptr noundef nonnull %6) #21
  br label %10

10:                                               ; preds = %7, %4
  %11 = tail call fastcc i32 @evdns_nameserver_add_impl_(ptr noundef nonnull %0, ptr noundef %1, i32 noundef %2)
  %12 = load ptr, ptr %5, align 8
  %.not8 = icmp eq ptr %12, null
  br i1 %.not8, label %16, label %13

13:                                               ; preds = %10
  %14 = load ptr, ptr getelementptr inbounds nuw (i8, ptr @evthread_lock_fns_, i64 32), align 8
  %15 = tail call i32 %14(i32 noundef 0, ptr noundef nonnull %12) #21
  br label %16

16:                                               ; preds = %13, %10
  ret i32 %11
}